; ModuleID = 'source-C-CXX/59/1575.c'
source_filename = "source-C-CXX/59/1575.c"
target datalayout = "e-m:e-p270:32:32-p271:32:32-p272:64:64-i64:64-f80:128-n8:16:32:64-S128"
target triple = "x86_64-pc-linux-gnu"

@.str = private unnamed_addr constant [3 x i8] c"%d\00", align 1
@.str.1 = private unnamed_addr constant [7 x i8] c"%d %d\0A\00", align 1
@.str.2 = private unnamed_addr constant [6 x i8] c"empty\00", align 1

; Function Attrs: nofree nounwind sspstrong uwtable
define dso_local i32 @main() local_unnamed_addr #0 {
  %1 = alloca i32, align 4
  %2 = bitcast i32* %1 to i8*
  call void @llvm.lifetime.start.p0i8(i64 4, i8* nonnull %2) #3
  %3 = call i32 (i8*, ...) @__isoc99_scanf(i8* getelementptr inbounds ([3 x i8], [3 x i8]* @.str, i64 0, i64 0), i32* nonnull %1)
  %4 = load i32, i32* %1, align 4, !tbaa !5
  %5 = icmp slt i32 %4, 3
  br i1 %5, label %56, label %6

6:                                                ; preds = %0, %49
  %7 = phi i32 [ %53, %49 ], [ 0, %0 ]
  %8 = phi i32 [ %50, %49 ], [ %4, %0 ]
  %9 = phi i32 [ %51, %49 ], [ 3, %0 ]
  %10 = phi i32 [ %41, %49 ], [ 1, %0 ]
  %11 = phi i32 [ %10, %49 ], [ 0, %0 ]
  %12 = add i32 %7, 1
  %13 = and i32 %12, 1
  %14 = icmp eq i32 %7, 0
  br i1 %14, label %31, label %15

15:                                               ; preds = %6
  %16 = and i32 %12, -2
  br label %17

17:                                               ; preds = %17, %15
  %18 = phi i32 [ 2, %15 ], [ %28, %17 ]
  %19 = phi i32 [ 1, %15 ], [ %27, %17 ]
  %20 = phi i32 [ %16, %15 ], [ %29, %17 ]
  %21 = urem i32 %9, %18
  %22 = icmp eq i32 %21, 0
  %23 = or i32 %18, 1
  %24 = urem i32 %9, %23
  %25 = icmp eq i32 %24, 0
  %26 = select i1 %25, i1 true, i1 %22
  %27 = select i1 %26, i32 0, i32 %19
  %28 = add nuw nsw i32 %18, 2
  %29 = add i32 %20, -2
  %30 = icmp eq i32 %29, 0
  br i1 %30, label %31, label %17, !llvm.loop !9

31:                                               ; preds = %17, %6
  %32 = phi i32 [ undef, %6 ], [ %27, %17 ]
  %33 = phi i32 [ 2, %6 ], [ %28, %17 ]
  %34 = phi i32 [ 1, %6 ], [ %27, %17 ]
  %35 = icmp eq i32 %13, 0
  br i1 %35, label %40, label %36

36:                                               ; preds = %31
  %37 = urem i32 %9, %33
  %38 = icmp eq i32 %37, 0
  %39 = select i1 %38, i32 0, i32 %34
  br label %40

40:                                               ; preds = %31, %36
  %41 = phi i32 [ %32, %31 ], [ %39, %36 ]
  %42 = icmp ne i32 %11, 0
  %43 = icmp ne i32 %41, 0
  %44 = select i1 %42, i1 %43, i1 false
  br i1 %44, label %45, label %49

45:                                               ; preds = %40
  %46 = add nsw i32 %9, -2
  %47 = call i32 (i8*, ...) @printf(i8* nonnull dereferenceable(1) getelementptr inbounds ([7 x i8], [7 x i8]* @.str.1, i64 0, i64 0), i32 %46, i32 %9)
  %48 = load i32, i32* %1, align 4, !tbaa !5
  br label %49

49:                                               ; preds = %40, %45
  %50 = phi i32 [ %8, %40 ], [ %48, %45 ]
  %51 = add nuw nsw i32 %9, 1
  %52 = icmp slt i32 %9, %50
  %53 = add i32 %7, 1
  br i1 %52, label %6, label %54, !llvm.loop !11

54:                                               ; preds = %49
  %55 = icmp slt i32 %50, 5
  br i1 %55, label %56, label %58

56:                                               ; preds = %0, %54
  %57 = call i32 (i8*, ...) @printf(i8* nonnull dereferenceable(1) getelementptr inbounds ([6 x i8], [6 x i8]* @.str.2, i64 0, i64 0))
  br label %58

58:                                               ; preds = %56, %54
  call void @llvm.lifetime.end.p0i8(i64 4, i8* nonnull %2) #3
  ret i32 0
}

; Function Attrs: argmemonly mustprogress nofree nosync nounwind willreturn
declare void @llvm.lifetime.start.p0i8(i64 immarg, i8* nocapture) #1

; Function Attrs: nofree nounwind
declare noundef i32 @__isoc99_scanf(i8* nocapture noundef readonly, ...) local_unnamed_addr #2

; Function Attrs: nofree nounwind
declare noundef i32 @printf(i8* nocapture noundef readonly, ...) local_unnamed_addr #2

; Function Attrs: argmemonly mustprogress nofree nosync nounwind willreturn
declare void @llvm.lifetime.end.p0i8(i64 immarg, i8* nocapture) #1


!llvm.module.flags = !{!0, !1, !2, !3}
!llvm.ident = !{!4}

!0 = !{i32 1, !"wchar_size", i32 4}
!1 = !{i32 7, !"PIC Level", i32 2}
!2 = !{i32 7, !"PIE Level", i32 2}
!3 = !{i32 7, !"uwtable", i32 1}
!4 = !{!"clang version 13.0.0"}
!5 = !{!6, !6, i64 0}
!6 = !{!"int", !7, i64 0}
!7 = !{!"omnipotent char", !8, i64 0}
!8 = !{!"Simple C/C++ TBAA"}
!9 = distinct !{!9, !10}
!10 = !{!"llvm.loop.mustprogress"}
!11 = distinct !{!11, !10}
